target datalayout = "e-m:e-p270:32:32-p271:32:32-p272:64:64-i64:64-i128:128-f80:128-n8:16:32:64-S128"
target triple = "x86_64-pc-linux-gnu"

%"class.base::File" = type <{ %"class.base::ScopedGeneric", [4 x i8], %"class.base::FilePath", [4 x i8], i32, i8, i8, [6 x i8] }>
%"class.base::ScopedGeneric" = type { %"struct.base::ScopedGeneric<int, base::internal::ScopedFDCloseTraits>::Data" }
%"struct.base::ScopedGeneric<int, base::internal::ScopedFDCloseTraits>::Data" = type { i32 }
%"class.base::FilePath" = type { %"class.std::__cxx11::basic_string" }
%"class.std::__cxx11::basic_string" = type { %"struct.std::__cxx11::basic_string<char>::_Alloc_hider", i64, %union.anon }
%"struct.std::__cxx11::basic_string<char>::_Alloc_hider" = type { ptr }
%union.anon = type { i64, [8 x i8] }
%"class.base::FileTracing::ScopedTrace" = type { ptr, ptr }

@.str.6 = private unnamed_addr constant [12 x i8] c"File::Write\00", align 1

; Function Attrs: mustprogress uwtable
define internal noundef zeroext i1 @_ZN4base12_GLOBAL__N_112IsOpenAppendEi(i32 noundef %0) #0 {
  %2 = alloca i32, align 4
  store i32 %0, ptr %2, align 4, !tbaa !41
  %3 = load i32, ptr %2, align 4, !tbaa !41
  %4 = call i32 (i32, i32, ...) @fcntl(i32 noundef %3, i32 noundef 3)
  %5 = and i32 %4, 1024
  %6 = icmp ne i32 %5, 0
  ret i1 %6
}

; Function Attrs: mustprogress nounwind uwtable
define linkonce_odr noundef nonnull align 4 dereferenceable(4) ptr @_ZNK4base13ScopedGenericIiNS_8internal19ScopedFDCloseTraitsEE3getEv(ptr noundef nonnull align 4 dereferenceable(4) %0) #4 comdat align 2 {
  %2 = alloca ptr, align 8
  store ptr %0, ptr %2, align 8, !tbaa !36
  %3 = load ptr, ptr %2, align 8
  %4 = getelementptr inbounds nuw %"class.base::ScopedGeneric", ptr %3, i32 0, i32 0
  %5 = getelementptr inbounds nuw %"struct.base::ScopedGeneric<int, base::internal::ScopedFDCloseTraits>::Data", ptr %4, i32 0, i32 0
  ret ptr %5
}

; Function Attrs: mustprogress nounwind uwtable
define linkonce_odr void @_ZN4base18ThreadRestrictions15AssertIOAllowedEv() #4 comdat align 2 {
  ret void
}

; Function Attrs: mustprogress uwtable
define noundef i32 @_ZN4base4File5WriteElPKci(ptr noundef nonnull align 8 dereferenceable(50) %0, i64 noundef %1, ptr noundef %2, i32 noundef %3) #0 align 2 personality ptr @__gxx_personality_v0 {
  %5 = alloca i32, align 4
  %6 = alloca ptr, align 8
  %7 = alloca i64, align 8
  %8 = alloca ptr, align 8
  %9 = alloca i32, align 4
  %10 = alloca %"class.base::FileTracing::ScopedTrace", align 8
  %11 = alloca ptr, align 8
  %12 = alloca i32, align 4
  %13 = alloca i32, align 4
  %14 = alloca i32, align 4
  %15 = alloca i64, align 8
  %16 = alloca i64, align 8
  store ptr %0, ptr %6, align 8, !tbaa !34
  store i64 %1, ptr %7, align 8, !tbaa !24
  store ptr %2, ptr %8, align 8, !tbaa !46
  store i32 %3, ptr %9, align 4, !tbaa !41
  %17 = load ptr, ptr %6, align 8
  call void @_ZN4base18ThreadRestrictions15AssertIOAllowedEv()
  %18 = getelementptr inbounds nuw %"class.base::File", ptr %17, i32 0, i32 0
  %19 = call noundef nonnull align 4 dereferenceable(4) ptr @_ZNK4base13ScopedGenericIiNS_8internal19ScopedFDCloseTraitsEE3getEv(ptr noundef nonnull align 4 dereferenceable(4) %18)
  %20 = load i32, ptr %19, align 4, !tbaa !41
  %21 = call noundef zeroext i1 @_ZN4base12_GLOBAL__N_112IsOpenAppendEi(i32 noundef %20)
  br i1 %21, label %22, label %26

22:                                               ; preds = %4
  %23 = load ptr, ptr %8, align 8, !tbaa !46
  %24 = load i32, ptr %9, align 4, !tbaa !41
  %25 = call noundef i32 @_ZN4base4File17WriteAtCurrentPosEPKci(ptr noundef nonnull align 8 dereferenceable(50) %17, ptr noundef %23, i32 noundef %24)
  store i32 %25, ptr %5, align 4
  br label %100

26:                                               ; preds = %4
  %27 = load i32, ptr %9, align 4, !tbaa !41
  %28 = icmp slt i32 %27, 0
  br i1 %28, label %29, label %30

29:                                               ; preds = %26
  store i32 -1, ptr %5, align 4
  br label %100

30:                                               ; preds = %26
  call void @llvm.lifetime.start.p0(i64 16, ptr %10) #14
  call void @_ZN4base11FileTracing11ScopedTraceC1Ev(ptr noundef nonnull align 8 dereferenceable(16) %10)
  %31 = invoke noundef zeroext i1 @_ZN4base11FileTracing17IsCategoryEnabledEv()
          to label %32 unwind label %37

32:                                               ; preds = %30
  br i1 %31, label %33, label %41

33:                                               ; preds = %32
  %34 = load i32, ptr %9, align 4, !tbaa !41
  %35 = sext i32 %34 to i64
  invoke void @_ZN4base11FileTracing11ScopedTrace10InitializeEPKcPKNS_4FileEl(ptr noundef nonnull align 8 dereferenceable(16) %10, ptr noundef @.str.6, ptr noundef %17, i64 noundef %35)
          to label %36 unwind label %37

36:                                               ; preds = %33
  br label %41

37:                                               ; preds = %33, %30
  %38 = landingpad { ptr, i32 }
          cleanup
  %39 = extractvalue { ptr, i32 } %38, 0
  store ptr %39, ptr %11, align 8
  %40 = extractvalue { ptr, i32 } %38, 1
  store i32 %40, ptr %12, align 4
  br label %99

41:                                               ; preds = %36, %32
  call void @llvm.lifetime.start.p0(i64 4, ptr %13) #14
  store i32 0, ptr %13, align 4, !tbaa !41
  call void @llvm.lifetime.start.p0(i64 4, ptr %14) #14
  br label %42

42:                                               ; preds = %86, %41
  call void @llvm.lifetime.start.p0(i64 8, ptr %15) #14
  br label %43

43:                                               ; preds = %69, %42
  %44 = getelementptr inbounds nuw %"class.base::File", ptr %17, i32 0, i32 0
  %45 = invoke noundef nonnull align 4 dereferenceable(4) ptr @_ZNK4base13ScopedGenericIiNS_8internal19ScopedFDCloseTraitsEE3getEv(ptr noundef nonnull align 4 dereferenceable(4) %44)
          to label %46 unwind label %78

46:                                               ; preds = %43
  %47 = load i32, ptr %45, align 4, !tbaa !41
  %48 = load ptr, ptr %8, align 8, !tbaa !46
  %49 = load i32, ptr %13, align 4, !tbaa !41
  %50 = sext i32 %49 to i64
  %51 = getelementptr inbounds i8, ptr %48, i64 %50
  %52 = load i32, ptr %9, align 4, !tbaa !41
  %53 = load i32, ptr %13, align 4, !tbaa !41
  %54 = sub nsw i32 %52, %53
  %55 = sext i32 %54 to i64
  %56 = load i64, ptr %7, align 8, !tbaa !24
  %57 = load i32, ptr %13, align 4, !tbaa !41
  %58 = sext i32 %57 to i64
  %59 = add nsw i64 %56, %58
  %60 = invoke i64 @pwrite(i32 noundef %47, ptr noundef %51, i64 noundef %55, i64 noundef %59)
          to label %61 unwind label %78

61:                                               ; preds = %46
  store i64 %60, ptr %15, align 8, !tbaa !24
  br label %62

62:                                               ; preds = %61
  %63 = load i64, ptr %15, align 8, !tbaa !24
  %64 = icmp eq i64 %63, -1
  br i1 %64, label %65, label %69

65:                                               ; preds = %62
  %66 = call ptr @__errno_location() #16
  %67 = load i32, ptr %66, align 4, !tbaa !41
  %68 = icmp eq i32 %67, 4
  br label %69

69:                                               ; preds = %65, %62
  %70 = phi i1 [ false, %62 ], [ %68, %65 ]
  br i1 %70, label %43, label %71, !llvm.loop !55

71:                                               ; preds = %69
  %72 = load i64, ptr %15, align 8, !tbaa !24
  store i64 %72, ptr %16, align 8, !tbaa !24
  call void @llvm.lifetime.end.p0(i64 8, ptr %15) #14
  %73 = load i64, ptr %16, align 8, !tbaa !24
  %74 = trunc i64 %73 to i32
  store i32 %74, ptr %14, align 4, !tbaa !41
  %75 = load i32, ptr %14, align 4, !tbaa !41
  %76 = icmp sle i32 %75, 0
  br i1 %76, label %77, label %82

77:                                               ; preds = %71
  br label %90

78:                                               ; preds = %46, %43
  %79 = landingpad { ptr, i32 }
          cleanup
  %80 = extractvalue { ptr, i32 } %79, 0
  store ptr %80, ptr %11, align 8
  %81 = extractvalue { ptr, i32 } %79, 1
  store i32 %81, ptr %12, align 4
  call void @llvm.lifetime.end.p0(i64 8, ptr %15) #14
  call void @llvm.lifetime.end.p0(i64 4, ptr %14) #14
  call void @llvm.lifetime.end.p0(i64 4, ptr %13) #14
  br label %99

82:                                               ; preds = %71
  %83 = load i32, ptr %14, align 4, !tbaa !41
  %84 = load i32, ptr %13, align 4, !tbaa !41
  %85 = add nsw i32 %84, %83
  store i32 %85, ptr %13, align 4, !tbaa !41
  br label %86

86:                                               ; preds = %82
  %87 = load i32, ptr %13, align 4, !tbaa !41
  %88 = load i32, ptr %9, align 4, !tbaa !41
  %89 = icmp slt i32 %87, %88
  br i1 %89, label %42, label %90, !llvm.loop !56

90:                                               ; preds = %86, %77
  %91 = load i32, ptr %13, align 4, !tbaa !41
  %92 = icmp ne i32 %91, 0
  br i1 %92, label %93, label %95

93:                                               ; preds = %90
  %94 = load i32, ptr %13, align 4, !tbaa !41
  br label %97

95:                                               ; preds = %90
  %96 = load i32, ptr %14, align 4, !tbaa !41
  br label %97

97:                                               ; preds = %95, %93
  %98 = phi i32 [ %94, %93 ], [ %96, %95 ]
  store i32 %98, ptr %5, align 4
  call void @llvm.lifetime.end.p0(i64 4, ptr %14) #14
  call void @llvm.lifetime.end.p0(i64 4, ptr %13) #14
  call void @_ZN4base11FileTracing11ScopedTraceD1Ev(ptr noundef nonnull align 8 dereferenceable(16) %10) #14
  call void @llvm.lifetime.end.p0(i64 16, ptr %10) #14
  br label %100

99:                                               ; preds = %78, %37
  call void @_ZN4base11FileTracing11ScopedTraceD1Ev(ptr noundef nonnull align 8 dereferenceable(16) %10) #14
  call void @llvm.lifetime.end.p0(i64 16, ptr %10) #14
  br label %102

100:                                              ; preds = %97, %29, %22
  %101 = load i32, ptr %5, align 4
  ret i32 %101

102:                                              ; preds = %99
  %103 = load ptr, ptr %11, align 8
  %104 = load i32, ptr %12, align 4
  %105 = insertvalue { ptr, i32 } poison, ptr %103, 0
  %106 = insertvalue { ptr, i32 } %105, i32 %104, 1
  resume { ptr, i32 } %106
}