; Function Attrs: mustprogress uwtable
define noundef i32 @_ZN4base4File5WriteElPKci(ptr noundef nonnull align 8 dereferenceable(50) %0, i64 noundef %1, ptr noundef readonly captures(none) %2, i32 noundef %3) local_unnamed_addr #0 align 2 personality ptr @__gxx_personality_v0 {
  %5 = alloca %"class.base::FileTracing::ScopedTrace", align 8
  %6 = load i32, ptr %0, align 8, !tbaa !27
  %7 = tail call i32 (i32, i32, ...) @fcntl(i32 noundef %6, i32 noundef 3)
  %8 = and i32 %7, 1024
  %.not32 = icmp eq i32 %8, 0
  br i1 %.not32, label %11, label %9

9:                                                ; preds = %4
  %10 = tail call noundef i32 @_ZN4base4File17WriteAtCurrentPosEPKci(ptr noundef nonnull align 8 dereferenceable(50) %0, ptr noundef %2, i32 noundef %3)
  br label %45

11:                                               ; preds = %4
  %12 = icmp slt i32 %3, 0
  br i1 %12, label %45, label %13

13:                                               ; preds = %11
  call void @llvm.lifetime.start.p0(i64 16, ptr nonnull %5) #14
  call void @_ZN4base11FileTracing11ScopedTraceC1Ev(ptr noundef nonnull align 8 dereferenceable(16) %5)
  %14 = invoke noundef zeroext i1 @_ZN4base11FileTracing17IsCategoryEnabledEv()
          to label %15 unwind label %18

15:                                               ; preds = %13
  br i1 %14, label %16, label %.preheader

.preheader:                                       ; preds = %16, %15
  br label %20

16:                                               ; preds = %15
  %17 = zext nneg i32 %3 to i64
  invoke void @_ZN4base11FileTracing11ScopedTrace10InitializeEPKcPKNS_4FileEl(ptr noundef nonnull align 8 dereferenceable(16) %5, ptr noundef nonnull @.str.6, ptr noundef nonnull %0, i64 noundef %17)
          to label %.preheader unwind label %18

18:                                               ; preds = %16, %13
  %19 = landingpad { ptr, i32 }
          cleanup
  br label %44

20:                                               ; preds = %.preheader, %39
  %.026 = phi i32 [ %40, %39 ], [ 0, %.preheader ]
  %21 = zext nneg i32 %.026 to i64
  %22 = getelementptr inbounds nuw i8, ptr %2, i64 %21
  %23 = sub nsw i32 %3, %.026
  %24 = sext i32 %23 to i64
  %25 = add nsw i64 %1, %21
  br label %26

26:                                               ; preds = %31, %20
  %27 = load i32, ptr %0, align 8, !tbaa !27
  %28 = invoke i64 @pwrite(i32 noundef %27, ptr noundef %22, i64 noundef %24, i64 noundef %25)
          to label %29 unwind label %37

29:                                               ; preds = %26
  %30 = icmp eq i64 %28, -1
  br i1 %30, label %31, label %.critedge

31:                                               ; preds = %29
  %32 = tail call ptr @__errno_location() #15
  %33 = load i32, ptr %32, align 4, !tbaa !27
  %34 = icmp eq i32 %33, 4
  br i1 %34, label %26, label %.critedge.thread, !llvm.loop !35

.critedge:                                        ; preds = %29
  %35 = trunc i64 %28 to i32
  %36 = icmp slt i32 %35, 1
  br i1 %36, label %.critedge.thread, label %39

37:                                               ; preds = %26
  %38 = landingpad { ptr, i32 }
          cleanup
  br label %44

39:                                               ; preds = %.critedge
  %40 = add nuw nsw i32 %.026, %35
  %41 = icmp slt i32 %40, %3
  br i1 %41, label %20, label %.critedge.thread, !llvm.loop !36

.critedge.thread:                                 ; preds = %.critedge, %39, %31
  %42 = phi i32 [ -1, %31 ], [ %35, %39 ], [ %35, %.critedge ]
  %.1 = phi i32 [ %.026, %31 ], [ %.026, %.critedge ], [ %40, %39 ]
  %.not = icmp eq i32 %.1, 0
  %43 = select i1 %.not, i32 %42, i32 %.1
  call void @_ZN4base11FileTracing11ScopedTraceD1Ev(ptr noundef nonnull align 8 dereferenceable(16) %5) #14
  call void @llvm.lifetime.end.p0(i64 16, ptr nonnull %5) #14
  br label %45

44:                                               ; preds = %37, %18
  %.pn = phi { ptr, i32 } [ %38, %37 ], [ %19, %18 ]
  call void @_ZN4base11FileTracing11ScopedTraceD1Ev(ptr noundef nonnull align 8 dereferenceable(16) %5) #14
  call void @llvm.lifetime.end.p0(i64 16, ptr nonnull %5) #14
  resume { ptr, i32 } %.pn

45:                                               ; preds = %11, %.critedge.thread, %9
  %.0 = phi i32 [ %10, %9 ], [ %43, %.critedge.thread ], [ -1, %11 ]
  ret i32 %.0
}